target datalayout = "e-m:e-p270:32:32-p271:32:32-p272:64:64-i64:64-i128:128-f80:128-n8:16:32:64-S128"
target triple = "x86_64-pc-linux-gnu"

%struct.expert_tapdata_t = type { [5 x ptr], ptr }
%struct._GString = type { ptr, i64, i64 }

@.str = private unnamed_addr constant [7 x i8] c"expert\00", align 1
@lowest_report_level = internal global i32 0, align 4
@.str.2 = private unnamed_addr constant [7 x i8] c",error\00", align 1
@.str.3 = private unnamed_addr constant [6 x i8] c",warn\00", align 1
@.str.4 = private unnamed_addr constant [6 x i8] c",note\00", align 1
@.str.5 = private unnamed_addr constant [6 x i8] c",chat\00", align 1
@.str.6 = private unnamed_addr constant [9 x i8] c",comment\00", align 1
@.str.7 = private unnamed_addr constant [24 x i8] c"Expert tap error (%s)!\0A\00", align 1

; Function Attrs: null_pointer_is_valid sspstrong uwtable
define internal void @expert_stat_init(ptr noundef %0, ptr noundef %1) #0 {
  %3 = alloca ptr, align 8
  %4 = alloca ptr, align 8
  %5 = alloca ptr, align 8
  %6 = alloca ptr, align 8
  %7 = alloca ptr, align 8
  %8 = alloca ptr, align 8
  %9 = alloca i32, align 4
  %10 = alloca i64, align 8
  %11 = alloca i64, align 8
  %12 = alloca ptr, align 8
  %13 = alloca ptr, align 8
  store ptr %0, ptr %3, align 8
  store ptr %1, ptr %4, align 8
  call void @llvm.lifetime.start.p0(i64 8, ptr %5) #9
  store ptr null, ptr %5, align 8
  call void @llvm.lifetime.start.p0(i64 8, ptr %6) #9
  store ptr null, ptr %6, align 8
  call void @llvm.lifetime.start.p0(i64 8, ptr %7) #9
  call void @llvm.lifetime.start.p0(i64 8, ptr %8) #9
  call void @llvm.lifetime.start.p0(i64 4, ptr %9) #9
  %14 = load ptr, ptr %3, align 8
  %15 = call i32 @strncmp(ptr noundef %14, ptr noundef @.str, i64 noundef 6) #10
  %16 = icmp eq i32 %15, 0
  br i1 %16, label %17, label %20

17:                                               ; preds = %2
  %18 = load ptr, ptr %3, align 8
  %19 = getelementptr i8, ptr %18, i64 6
  store ptr %19, ptr %5, align 8
  br label %21

20:                                               ; preds = %2
  store i32 5, ptr @lowest_report_level, align 4
  br label %21

21:                                               ; preds = %20, %17
  %22 = load ptr, ptr %5, align 8
  %23 = icmp ne ptr %22, null
  br i1 %23, label %24, label %64

24:                                               ; preds = %21
  %25 = load ptr, ptr %5, align 8
  %26 = call i32 @g_ascii_strncasecmp(ptr noundef %25, ptr noundef @.str.2, i64 noundef 6)
  %27 = icmp eq i32 %26, 0
  br i1 %27, label %28, label %31

28:                                               ; preds = %24
  store i32 4, ptr @lowest_report_level, align 4
  %29 = load ptr, ptr %5, align 8
  %30 = getelementptr i8, ptr %29, i64 6
  store ptr %30, ptr %5, align 8
  br label %63

31:                                               ; preds = %24
  %32 = load ptr, ptr %5, align 8
  %33 = call i32 @g_ascii_strncasecmp(ptr noundef %32, ptr noundef @.str.3, i64 noundef 5)
  %34 = icmp eq i32 %33, 0
  br i1 %34, label %35, label %38

35:                                               ; preds = %31
  store i32 3, ptr @lowest_report_level, align 4
  %36 = load ptr, ptr %5, align 8
  %37 = getelementptr i8, ptr %36, i64 5
  store ptr %37, ptr %5, align 8
  br label %62

38:                                               ; preds = %31
  %39 = load ptr, ptr %5, align 8
  %40 = call i32 @g_ascii_strncasecmp(ptr noundef %39, ptr noundef @.str.4, i64 noundef 5)
  %41 = icmp eq i32 %40, 0
  br i1 %41, label %42, label %45

42:                                               ; preds = %38
  store i32 2, ptr @lowest_report_level, align 4
  %43 = load ptr, ptr %5, align 8
  %44 = getelementptr i8, ptr %43, i64 5
  store ptr %44, ptr %5, align 8
  br label %61

45:                                               ; preds = %38
  %46 = load ptr, ptr %5, align 8
  %47 = call i32 @g_ascii_strncasecmp(ptr noundef %46, ptr noundef @.str.5, i64 noundef 5)
  %48 = icmp eq i32 %47, 0
  br i1 %48, label %49, label %52

49:                                               ; preds = %45
  store i32 1, ptr @lowest_report_level, align 4
  %50 = load ptr, ptr %5, align 8
  %51 = getelementptr i8, ptr %50, i64 5
  store ptr %51, ptr %5, align 8
  br label %60

52:                                               ; preds = %45
  %53 = load ptr, ptr %5, align 8
  %54 = call i32 @g_ascii_strncasecmp(ptr noundef %53, ptr noundef @.str.6, i64 noundef 8)
  %55 = icmp eq i32 %54, 0
  br i1 %55, label %56, label %59

56:                                               ; preds = %52
  store i32 0, ptr @lowest_report_level, align 4
  %57 = load ptr, ptr %5, align 8
  %58 = getelementptr i8, ptr %57, i64 8
  store ptr %58, ptr %5, align 8
  br label %59

59:                                               ; preds = %56, %52
  br label %60

60:                                               ; preds = %59, %49
  br label %61

61:                                               ; preds = %60, %42
  br label %62

62:                                               ; preds = %61, %35
  br label %63

63:                                               ; preds = %62, %28
  br label %64

64:                                               ; preds = %63, %21
  %65 = load ptr, ptr %5, align 8
  %66 = icmp ne ptr %65, null
  br i1 %66, label %67, label %77

67:                                               ; preds = %64
  %68 = load ptr, ptr %5, align 8
  %69 = getelementptr i8, ptr %68, i64 0
  %70 = load i8, ptr %69, align 1
  %71 = sext i8 %70 to i32
  %72 = icmp eq i32 %71, 44
  br i1 %72, label %73, label %76

73:                                               ; preds = %67
  %74 = load ptr, ptr %5, align 8
  %75 = getelementptr i8, ptr %74, i64 1
  store ptr %75, ptr %6, align 8
  br label %76

76:                                               ; preds = %73, %67
  br label %77

77:                                               ; preds = %76, %64
  call void @llvm.lifetime.start.p0(i64 8, ptr %10) #9
  store i64 1, ptr %10, align 8
  call void @llvm.lifetime.start.p0(i64 8, ptr %11) #9
  store i64 48, ptr %11, align 8
  call void @llvm.lifetime.start.p0(i64 8, ptr %12) #9
  %78 = load i64, ptr %11, align 8
  %79 = icmp eq i64 %78, 1
  br i1 %79, label %80, label %83

80:                                               ; preds = %77
  %81 = load i64, ptr %10, align 8
  %82 = call noalias ptr @g_malloc0(i64 noundef %81) #11
  store ptr %82, ptr %12, align 8
  br label %104

83:                                               ; preds = %77
  %84 = load i64, ptr %10, align 8
  %85 = call i1 @llvm.is.constant.i64(i64 %84)
  br i1 %85, label %86, label %99

86:                                               ; preds = %83
  %87 = load i64, ptr %11, align 8
  %88 = icmp eq i64 %87, 0
  br i1 %88, label %94, label %89

89:                                               ; preds = %86
  %90 = load i64, ptr %10, align 8
  %91 = load i64, ptr %11, align 8
  %92 = udiv i64 -1, %91
  %93 = icmp ule i64 %90, %92
  br i1 %93, label %94, label %99

94:                                               ; preds = %89, %86
  %95 = load i64, ptr %10, align 8
  %96 = load i64, ptr %11, align 8
  %97 = mul i64 %95, %96
  %98 = call noalias ptr @g_malloc0(i64 noundef %97) #11
  store ptr %98, ptr %12, align 8
  br label %103

99:                                               ; preds = %89, %83
  %100 = load i64, ptr %10, align 8
  %101 = load i64, ptr %11, align 8
  %102 = call noalias ptr @g_malloc0_n(i64 noundef %100, i64 noundef %101) #12
  store ptr %102, ptr %12, align 8
  br label %103

103:                                              ; preds = %99, %94
  br label %104

104:                                              ; preds = %103, %80
  %105 = load ptr, ptr %12, align 8
  store ptr %105, ptr %13, align 8
  call void @llvm.lifetime.end.p0(i64 8, ptr %12) #9
  call void @llvm.lifetime.end.p0(i64 8, ptr %11) #9
  call void @llvm.lifetime.end.p0(i64 8, ptr %10) #9
  %106 = load ptr, ptr %13, align 8
  store ptr %106, ptr %8, align 8
  %107 = call ptr @g_string_chunk_new(i64 noundef 100)
  %108 = load ptr, ptr %8, align 8
  %109 = getelementptr inbounds nuw %struct.expert_tapdata_t, ptr %108, i32 0, i32 1
  store ptr %107, ptr %109, align 8
  store i32 0, ptr %9, align 4
  br label %110

110:                                              ; preds = %120, %104
  %111 = load i32, ptr %9, align 4
  %112 = icmp slt i32 %111, 5
  br i1 %112, label %113, label %123

113:                                              ; preds = %110
  %114 = call ptr @g_array_sized_new(i32 noundef 0, i32 noundef 0, i32 noundef 24, i32 noundef 1000)
  %115 = load ptr, ptr %8, align 8
  %116 = getelementptr inbounds nuw %struct.expert_tapdata_t, ptr %115, i32 0, i32 0
  %117 = load i32, ptr %9, align 4
  %118 = sext i32 %117 to i64
  %119 = getelementptr [5 x ptr], ptr %116, i64 0, i64 %118
  store ptr %114, ptr %119, align 8
  br label %120

120:                                              ; preds = %113
  %121 = load i32, ptr %9, align 4
  %122 = add i32 %121, 1
  store i32 %122, ptr %9, align 4
  br label %110, !llvm.loop !7

123:                                              ; preds = %110
  %124 = load ptr, ptr %8, align 8
  %125 = load ptr, ptr %6, align 8
  %126 = call ptr @register_tap_listener(ptr noundef @.str, ptr noundef %124, ptr noundef %125, i32 noundef 0, ptr noundef @expert_stat_reset, ptr noundef @expert_stat_packet, ptr noundef @expert_stat_draw, ptr noundef @expert_tapdata_free)
  store ptr %126, ptr %7, align 8
  %127 = load ptr, ptr %7, align 8
  %128 = icmp ne ptr %127, null
  br i1 %128, label %129, label %137

129:                                              ; preds = %123
  %130 = load ptr, ptr %7, align 8
  %131 = getelementptr inbounds nuw %struct._GString, ptr %130, i32 0, i32 0
  %132 = load ptr, ptr %131, align 8
  %133 = call i32 (i32, ptr, ...) @__printf_chk(i32 noundef 2, ptr noundef @.str.7, ptr noundef %132)
  %134 = load ptr, ptr %7, align 8
  %135 = call ptr @g_string_free(ptr noundef %134, i32 noundef 1)
  %136 = load ptr, ptr %8, align 8
  call void @expert_tapdata_free(ptr noundef %136)
  call void @exit(i32 noundef 1) #13
  unreachable

137:                                              ; preds = %123
  call void @llvm.lifetime.end.p0(i64 4, ptr %9) #9
  call void @llvm.lifetime.end.p0(i64 8, ptr %8) #9
  call void @llvm.lifetime.end.p0(i64 8, ptr %7) #9
  call void @llvm.lifetime.end.p0(i64 8, ptr %6) #9
  call void @llvm.lifetime.end.p0(i64 8, ptr %5) #9
  ret void
}