; Function Attrs: null_pointer_is_valid sspstrong uwtable
define internal void @expert_stat_init(ptr noundef %0, ptr readnone captures(none) %1) #0 {
  %3 = tail call i32 @strncmp(ptr noundef %0, ptr noundef nonnull dereferenceable(7) @.str, i64 noundef 6) #8
  %4 = icmp eq i32 %3, 0
  br i1 %4, label %5, label %.thread

.thread:                                          ; preds = %2
  store i32 5, ptr @lowest_report_level, align 4
  br label %.thread46

5:                                                ; preds = %2
  %6 = getelementptr i8, ptr %0, i64 6
  %.not = icmp eq ptr %6, null
  br i1 %.not, label %.thread46, label %7

7:                                                ; preds = %5
  %8 = tail call i32 @g_ascii_strncasecmp(ptr noundef nonnull %6, ptr noundef nonnull @.str.2, i64 noundef 6)
  %9 = icmp eq i32 %8, 0
  br i1 %9, label %22, label %10

10:                                               ; preds = %7
  %11 = tail call i32 @g_ascii_strncasecmp(ptr noundef nonnull %6, ptr noundef nonnull @.str.3, i64 noundef 5)
  %12 = icmp eq i32 %11, 0
  br i1 %12, label %22, label %13

13:                                               ; preds = %10
  %14 = tail call i32 @g_ascii_strncasecmp(ptr noundef nonnull %6, ptr noundef nonnull @.str.4, i64 noundef 5)
  %15 = icmp eq i32 %14, 0
  br i1 %15, label %22, label %16

16:                                               ; preds = %13
  %17 = tail call i32 @g_ascii_strncasecmp(ptr noundef nonnull %6, ptr noundef nonnull @.str.5, i64 noundef 5)
  %18 = icmp eq i32 %17, 0
  br i1 %18, label %22, label %19

19:                                               ; preds = %16
  %20 = tail call i32 @g_ascii_strncasecmp(ptr noundef nonnull %6, ptr noundef nonnull @.str.6, i64 noundef 8)
  %21 = icmp eq i32 %20, 0
  br i1 %21, label %22, label %.thread49

22:                                               ; preds = %19, %16, %13, %10, %7
  %.sink55 = phi i32 [ 4, %7 ], [ 3, %10 ], [ 2, %13 ], [ 1, %16 ], [ 0, %19 ]
  %.sink = phi i64 [ 12, %7 ], [ 11, %10 ], [ 11, %13 ], [ 11, %16 ], [ 14, %19 ]
  store i32 %.sink55, ptr @lowest_report_level, align 4
  %23 = getelementptr i8, ptr %0, i64 %.sink
  %.not42 = icmp eq ptr %23, null
  br i1 %.not42, label %.thread46, label %.thread49

.thread49:                                        ; preds = %19, %22
  %.152 = phi ptr [ %23, %22 ], [ %6, %19 ]
  %24 = load i8, ptr %.152, align 1
  %25 = icmp eq i8 %24, 44
  %26 = getelementptr i8, ptr %.152, i64 1
  %spec.select = select i1 %25, ptr %26, ptr null
  br label %.thread46

.thread46:                                        ; preds = %.thread, %5, %.thread49, %22
  %.039 = phi ptr [ null, %22 ], [ %spec.select, %.thread49 ], [ null, %5 ], [ null, %.thread ]
  %27 = tail call noalias dereferenceable_or_null(48) ptr @g_malloc0(i64 noundef 48) #9
  %28 = tail call ptr @g_string_chunk_new(i64 noundef 100)
  %29 = getelementptr inbounds nuw i8, ptr %27, i64 40
  store ptr %28, ptr %29, align 8
  br label %30

30:                                               ; preds = %.thread46, %30
  %indvars.iv = phi i64 [ 0, %.thread46 ], [ %indvars.iv.next, %30 ]
  %31 = tail call ptr @g_array_sized_new(i32 noundef 0, i32 noundef 0, i32 noundef 24, i32 noundef 1000)
  %32 = getelementptr [5 x ptr], ptr %27, i64 0, i64 %indvars.iv
  store ptr %31, ptr %32, align 8
  %indvars.iv.next = add nuw nsw i64 %indvars.iv, 1
  %exitcond.not = icmp eq i64 %indvars.iv.next, 5
  br i1 %exitcond.not, label %33, label %30, !llvm.loop !7

33:                                               ; preds = %30
  %34 = tail call ptr @register_tap_listener(ptr noundef nonnull @.str, ptr noundef %27, ptr noundef %.039, i32 noundef 0, ptr noundef nonnull @expert_stat_reset, ptr noundef nonnull @expert_stat_packet, ptr noundef nonnull @expert_stat_draw, ptr noundef nonnull @expert_tapdata_free)
  %.not43 = icmp eq ptr %34, null
  br i1 %.not43, label %39, label %35

35:                                               ; preds = %33
  %36 = load ptr, ptr %34, align 8
  %37 = tail call i32 (i32, ptr, ...) @__printf_chk(i32 noundef 2, ptr noundef nonnull @.str.7, ptr noundef %36)
  %38 = tail call ptr @g_string_free(ptr noundef nonnull %34, i32 noundef 1)
  tail call void @expert_tapdata_free(ptr noundef %27)
  tail call void @exit(i32 noundef 1) #10
  unreachable

39:                                               ; preds = %33
  ret void
}